; Function Attrs: mustprogress uwtable
define void @grpc_init() #3 personality ptr @__gxx_personality_v0 {
entry:
  tail call void @gpr_once_init(ptr noundef nonnull @_ZL12g_basic_init, ptr noundef nonnull @_ZL13do_basic_initv)
  %0 = load ptr, ptr @_ZL9g_init_mu, align 8
  tail call void @_ZN4absl12lts_202308025Mutex4LockEv(ptr noundef nonnull align 8 dereferenceable(8) %0)
  %1 = load i32, ptr @_ZL17g_initializations, align 4
  %inc = add nsw i32 %1, 1
  store i32 %inc, ptr @_ZL17g_initializations, align 4
  %cmp = icmp eq i32 %1, 0
  br i1 %cmp, label %if.then, label %if.end5

if.then:                                          ; preds = %entry
  %.b1 = load i1, ptr @_ZL15g_shutting_down, align 1
  br i1 %.b1, label %if.then1, label %if.end

if.then1:                                         ; preds = %if.then
  store i1 false, ptr @_ZL15g_shutting_down, align 1
  %2 = load ptr, ptr @_ZL18g_shutting_down_cv, align 8
  invoke void @_ZN4absl12lts_202308027CondVar9SignalAllEv(ptr noundef nonnull align 8 dereferenceable(8) %2)
          to label %if.end unwind label %lpad

lpad:                                             ; preds = %if.then7, %invoke.cont3, %invoke.cont2, %if.end, %if.then1
  %3 = landingpad { ptr, i32 }
          cleanup
  invoke void @_ZN4absl12lts_202308025Mutex6UnlockEv(ptr noundef nonnull align 8 dereferenceable(8) %0)
          to label %_ZN4absl12lts_202308029MutexLockD2Ev.exit unwind label %terminate.lpad.i

terminate.lpad.i:                                 ; preds = %lpad
  %4 = landingpad { ptr, i32 }
          catch ptr null
  %5 = extractvalue { ptr, i32 } %4, 0
  tail call void @__clang_call_terminate(ptr %5) #15
  unreachable

_ZN4absl12lts_202308029MutexLockD2Ev.exit:        ; preds = %lpad
  resume { ptr, i32 } %3

if.end:                                           ; preds = %if.then1, %if.then
  invoke void @_Z15grpc_iomgr_initv()
          to label %invoke.cont2 unwind label %lpad

invoke.cont2:                                     ; preds = %if.end
  invoke void @_Z27grpc_resolver_dns_ares_initv()
          to label %invoke.cont3 unwind label %lpad

invoke.cont3:                                     ; preds = %invoke.cont2
  invoke void @_Z16grpc_iomgr_startv()
          to label %if.end5 unwind label %lpad

if.end5:                                          ; preds = %invoke.cont3, %entry
  %6 = load atomic i8, ptr getelementptr inbounds (%"class.grpc_core::TraceFlag", ptr @grpc_api_trace, i64 0, i32 2, i32 0, i32 0) monotonic, align 8
  %7 = and i8 %6, 1
  %tobool.i.i.i.not = icmp eq i8 %7, 0
  br i1 %tobool.i.i.i.not, label %if.end9, label %if.then7

if.then7:                                         ; preds = %if.end5
  invoke void (ptr, i32, i32, ptr, ...) @gpr_log(ptr noundef nonnull @.str, i32 noundef 123, i32 noundef 1, ptr noundef nonnull @.str.5)
          to label %if.end9 unwind label %lpad

if.end9:                                          ; preds = %if.then7, %if.end5
  invoke void @_ZN4absl12lts_202308025Mutex6UnlockEv(ptr noundef nonnull align 8 dereferenceable(8) %0)
          to label %_ZN4absl12lts_202308029MutexLockD2Ev.exit3 unwind label %terminate.lpad.i2

terminate.lpad.i2:                                ; preds = %if.end9
  %8 = landingpad { ptr, i32 }
          catch ptr null
  %9 = extractvalue { ptr, i32 } %8, 0
  tail call void @__clang_call_terminate(ptr %9) #15
  unreachable

_ZN4absl12lts_202308029MutexLockD2Ev.exit3:       ; preds = %if.end9
  ret void
}